; ModuleID = 'source-C-CXX/48/1117.c'
source_filename = "source-C-CXX/48/1117.c"
target datalayout = "e-m:e-p270:32:32-p271:32:32-p272:64:64-i64:64-f80:128-n8:16:32:64-S128"
target triple = "x86_64-pc-linux-gnu"

; Function Attrs: nounwind sspstrong uwtable
define dso_local i32 @main() local_unnamed_addr #0 {
  %1 = alloca [500 x i8], align 16
  %2 = getelementptr inbounds [500 x i8], [500 x i8]* %1, i64 0, i64 0
  call void @llvm.lifetime.start.p0i8(i64 500, i8* nonnull %2) #5
  %3 = call i32 (i8*, ...) bitcast (i32 (...)* @gets to i32 (i8*, ...)*)(i8* nonnull %2) #5
  %4 = call i64 @strlen(i8* noundef nonnull %2) #6
  %5 = trunc i64 %4 to i32
  %6 = icmp slt i32 %5, 2
  br i1 %6, label %57, label %7

7:                                                ; preds = %0
  %8 = add i64 %4, 1
  %9 = and i64 %8, 4294967295
  br label %10

10:                                               ; preds = %7, %54
  %11 = phi i64 [ 2, %7 ], [ %55, %54 ]
  %12 = phi i32 [ %5, %7 ], [ %13, %54 ]
  %13 = add i32 %12, -1
  %14 = trunc i64 %11 to i32
  %15 = icmp slt i32 %5, %14
  br i1 %15, label %54, label %16

16:                                               ; preds = %10
  %17 = lshr i64 %11, 1
  %18 = and i64 %17, 2147483647
  %19 = zext i32 %13 to i64
  br label %20

20:                                               ; preds = %51, %16
  %21 = phi i64 [ 0, %16 ], [ %52, %51 ]
  %22 = add nuw nsw i64 %21, %18
  %23 = shl nuw nsw i64 %21, 1
  %24 = add nuw nsw i64 %23, %11
  br label %29

25:                                               ; preds = %29
  %26 = icmp ult i64 %40, %22
  br i1 %26, label %29, label %27, !llvm.loop !5

27:                                               ; preds = %25
  %28 = add nuw nsw i64 %21, %11
  br label %41

29:                                               ; preds = %20, %25
  %30 = phi i64 [ %21, %20 ], [ %40, %25 ]
  %31 = getelementptr inbounds [500 x i8], [500 x i8]* %1, i64 0, i64 %30
  %32 = load i8, i8* %31, align 1, !tbaa !7
  %33 = xor i64 %30, -1
  %34 = add nsw i64 %24, %33
  %35 = shl i64 %34, 32
  %36 = ashr exact i64 %35, 32
  %37 = getelementptr inbounds [500 x i8], [500 x i8]* %1, i64 0, i64 %36
  %38 = load i8, i8* %37, align 1, !tbaa !7
  %39 = icmp eq i8 %32, %38
  %40 = add nuw nsw i64 %30, 1
  br i1 %39, label %25, label %51

41:                                               ; preds = %27, %41
  %42 = phi i64 [ %21, %27 ], [ %47, %41 ]
  %43 = getelementptr inbounds [500 x i8], [500 x i8]* %1, i64 0, i64 %42
  %44 = load i8, i8* %43, align 1, !tbaa !7
  %45 = sext i8 %44 to i32
  %46 = call i32 @putchar(i32 %45)
  %47 = add nuw nsw i64 %42, 1
  %48 = icmp ult i64 %47, %28
  br i1 %48, label %41, label %49, !llvm.loop !10

49:                                               ; preds = %41
  %50 = call i32 @putchar(i32 10)
  br label %51

51:                                               ; preds = %29, %49
  %52 = add nuw nsw i64 %21, 1
  %53 = icmp eq i64 %52, %19
  br i1 %53, label %54, label %20, !llvm.loop !11

54:                                               ; preds = %51, %10
  %55 = add nuw nsw i64 %11, 1
  %56 = icmp eq i64 %55, %9
  br i1 %56, label %57, label %10, !llvm.loop !12

57:                                               ; preds = %54, %0
  call void @llvm.lifetime.end.p0i8(i64 500, i8* nonnull %2) #5
  ret i32 0
}

; Function Attrs: argmemonly mustprogress nofree nosync nounwind willreturn
declare void @llvm.lifetime.start.p0i8(i64 immarg, i8* nocapture) #1

declare i32 @gets(...) local_unnamed_addr #2

; Function Attrs: argmemonly mustprogress nofree nounwind readonly willreturn
declare i64 @strlen(i8* nocapture) local_unnamed_addr #3

; Function Attrs: argmemonly mustprogress nofree nosync nounwind willreturn
declare void @llvm.lifetime.end.p0i8(i64 immarg, i8* nocapture) #1

; Function Attrs: nofree nounwind
declare noundef i32 @putchar(i32 noundef) local_unnamed_addr #4


!llvm.module.flags = !{!0, !1, !2, !3}
!llvm.ident = !{!4}

!0 = !{i32 1, !"wchar_size", i32 4}
!1 = !{i32 7, !"PIC Level", i32 2}
!2 = !{i32 7, !"PIE Level", i32 2}
!3 = !{i32 7, !"uwtable", i32 1}
!4 = !{!"clang version 13.0.0"}
!5 = distinct !{!5, !6}
!6 = !{!"llvm.loop.mustprogress"}
!7 = !{!8, !8, i64 0}
!8 = !{!"omnipotent char", !9, i64 0}
!9 = !{!"Simple C/C++ TBAA"}
!10 = distinct !{!10, !6}
!11 = distinct !{!11, !6}
!12 = distinct !{!12, !6}
